; Function Attrs: mustprogress uwtable
define hidden void @_ZNK4cvc58internal7printer4smt211Smt2Printer20toStreamCmdSetOptionERSoRKNSt7__cxx1112basic_stringIcSt11char_traitsIcESaIcEEESC_(ptr nonnull readnone align 8 captures(none) %0, ptr noundef nonnull align 8 dereferenceable(8) %1, ptr noundef nonnull align 8 dereferenceable(32) %2, ptr noundef nonnull readonly align 8 captures(none) dereferenceable(32) %3) unnamed_addr #3 align 2 {
  %5 = alloca i8, align 1
  %6 = alloca i8, align 1
  %7 = tail call noundef nonnull align 8 dereferenceable(8) ptr @_ZSt16__ostream_insertIcSt11char_traitsIcEERSt13basic_ostreamIT_T0_ES6_PKS3_l(ptr noundef nonnull align 8 dereferenceable(8) %1, ptr noundef nonnull @.str.421, i64 noundef 13)
  %8 = load ptr, ptr %2, align 8, !tbaa !16
  %9 = getelementptr inbounds nuw i8, ptr %2, i64 8
  %10 = load i64, ptr %9, align 8, !tbaa !12
  %11 = tail call noundef nonnull align 8 dereferenceable(8) ptr @_ZSt16__ostream_insertIcSt11char_traitsIcEERSt13basic_ostreamIT_T0_ES6_PKS3_l(ptr noundef nonnull align 8 dereferenceable(8) %1, ptr noundef %8, i64 noundef %10)
  call void @llvm.lifetime.start.p0(i64 1, ptr nonnull %6)
  store i8 32, ptr %6, align 1, !tbaa !15
  %12 = load ptr, ptr %11, align 8, !tbaa !40
  %13 = getelementptr i8, ptr %12, i64 -24
  %14 = load i64, ptr %13, align 8
  %15 = getelementptr inbounds i8, ptr %11, i64 %14
  %16 = getelementptr inbounds nuw i8, ptr %15, i64 16
  %17 = load i64, ptr %16, align 8, !tbaa !55
  %.not.i = icmp eq i64 %17, 0
  br i1 %.not.i, label %20, label %18

18:                                               ; preds = %4
  %19 = call noundef nonnull align 8 dereferenceable(8) ptr @_ZSt16__ostream_insertIcSt11char_traitsIcEERSt13basic_ostreamIT_T0_ES6_PKS3_l(ptr noundef nonnull align 8 dereferenceable(8) %11, ptr noundef nonnull %6, i64 noundef 1)
  br label %_ZStlsISt11char_traitsIcEERSt13basic_ostreamIcT_ES5_c.exit

20:                                               ; preds = %4
  %21 = tail call noundef nonnull align 8 dereferenceable(8) ptr @_ZNSo3putEc(ptr noundef nonnull align 8 dereferenceable(8) %11, i8 noundef signext 32)
  br label %_ZStlsISt11char_traitsIcEERSt13basic_ostreamIcT_ES5_c.exit

_ZStlsISt11char_traitsIcEERSt13basic_ostreamIcT_ES5_c.exit: ; preds = %18, %20
  call void @llvm.lifetime.end.p0(i64 1, ptr nonnull %6)
  %22 = call noundef i32 @_ZNKSt7__cxx1112basic_stringIcSt11char_traitsIcESaIcEE7compareEPKc(ptr noundef nonnull align 8 dereferenceable(32) %2, ptr noundef nonnull @.str.422) #25
  %23 = icmp eq i32 %22, 0
  br i1 %23, label %30, label %24

24:                                               ; preds = %_ZStlsISt11char_traitsIcEERSt13basic_ostreamIcT_ES5_c.exit
  %25 = call noundef i32 @_ZNKSt7__cxx1112basic_stringIcSt11char_traitsIcESaIcEE7compareEPKc(ptr noundef nonnull align 8 dereferenceable(32) %2, ptr noundef nonnull @.str.423) #25
  %26 = icmp eq i32 %25, 0
  br i1 %26, label %30, label %27

27:                                               ; preds = %24
  %28 = call noundef i32 @_ZNKSt7__cxx1112basic_stringIcSt11char_traitsIcESaIcEE7compareEPKc(ptr noundef nonnull align 8 dereferenceable(32) %2, ptr noundef nonnull @.str.424) #25
  %29 = icmp eq i32 %28, 0
  br i1 %29, label %30, label %37

30:                                               ; preds = %27, %24, %_ZStlsISt11char_traitsIcEERSt13basic_ostreamIcT_ES5_c.exit
  %31 = call noundef nonnull align 8 dereferenceable(8) ptr @_ZSt16__ostream_insertIcSt11char_traitsIcEERSt13basic_ostreamIT_T0_ES6_PKS3_l(ptr noundef nonnull align 8 dereferenceable(8) %1, ptr noundef nonnull @.str.425, i64 noundef 1)
  %32 = load ptr, ptr %3, align 8, !tbaa !16
  %33 = getelementptr inbounds nuw i8, ptr %3, i64 8
  %34 = load i64, ptr %33, align 8, !tbaa !12
  %35 = call noundef nonnull align 8 dereferenceable(8) ptr @_ZSt16__ostream_insertIcSt11char_traitsIcEERSt13basic_ostreamIT_T0_ES6_PKS3_l(ptr noundef nonnull align 8 dereferenceable(8) %1, ptr noundef %32, i64 noundef %34)
  %36 = call noundef nonnull align 8 dereferenceable(8) ptr @_ZSt16__ostream_insertIcSt11char_traitsIcEERSt13basic_ostreamIT_T0_ES6_PKS3_l(ptr noundef nonnull align 8 dereferenceable(8) %35, ptr noundef nonnull @.str.425, i64 noundef 1)
  br label %42

37:                                               ; preds = %27
  %38 = load ptr, ptr %3, align 8, !tbaa !16
  %39 = getelementptr inbounds nuw i8, ptr %3, i64 8
  %40 = load i64, ptr %39, align 8, !tbaa !12
  %41 = call noundef nonnull align 8 dereferenceable(8) ptr @_ZSt16__ostream_insertIcSt11char_traitsIcEERSt13basic_ostreamIT_T0_ES6_PKS3_l(ptr noundef nonnull align 8 dereferenceable(8) %1, ptr noundef %38, i64 noundef %40)
  br label %42

42:                                               ; preds = %37, %30
  call void @llvm.lifetime.start.p0(i64 1, ptr nonnull %5)
  store i8 41, ptr %5, align 1, !tbaa !15
  %43 = load ptr, ptr %1, align 8, !tbaa !40
  %44 = getelementptr i8, ptr %43, i64 -24
  %45 = load i64, ptr %44, align 8
  %46 = getelementptr inbounds i8, ptr %1, i64 %45
  %47 = getelementptr inbounds nuw i8, ptr %46, i64 16
  %48 = load i64, ptr %47, align 8, !tbaa !55
  %.not.i10 = icmp eq i64 %48, 0
  br i1 %.not.i10, label %51, label %49

49:                                               ; preds = %42
  %50 = call noundef nonnull align 8 dereferenceable(8) ptr @_ZSt16__ostream_insertIcSt11char_traitsIcEERSt13basic_ostreamIT_T0_ES6_PKS3_l(ptr noundef nonnull align 8 dereferenceable(8) %1, ptr noundef nonnull %5, i64 noundef 1)
  br label %_ZStlsISt11char_traitsIcEERSt13basic_ostreamIcT_ES5_c.exit12

51:                                               ; preds = %42
  %52 = call noundef nonnull align 8 dereferenceable(8) ptr @_ZNSo3putEc(ptr noundef nonnull align 8 dereferenceable(8) %1, i8 noundef signext 41)
  br label %_ZStlsISt11char_traitsIcEERSt13basic_ostreamIcT_ES5_c.exit12

_ZStlsISt11char_traitsIcEERSt13basic_ostreamIcT_ES5_c.exit12: ; preds = %49, %51
  call void @llvm.lifetime.end.p0(i64 1, ptr nonnull %5)
  ret void
}